target datalayout = "e-m:e-p270:32:32-p271:32:32-p272:64:64-i64:64-i128:128-f80:128-n8:16:32:64-S128"
target triple = "x86_64-pc-linux-gnu"

%struct._object = type { %union.anon, ptr }
%union.anon = type { i64 }
%struct.PyVarObject = type { %struct._object, i64 }
%struct.PyTupleObject = type { %struct.PyVarObject, [1 x ptr] }
%struct._typeobject = type { %struct.PyVarObject, ptr, i64, i64, ptr, i64, ptr, ptr, ptr, ptr, ptr, ptr, ptr, ptr, ptr, ptr, ptr, ptr, ptr, i64, ptr, ptr, ptr, ptr, i64, ptr, ptr, ptr, ptr, ptr, ptr, ptr, ptr, ptr, i64, ptr, ptr, ptr, ptr, ptr, ptr, ptr, ptr, ptr, ptr, ptr, i32, ptr, ptr, i8, i16 }
%struct.anon = type { i32, i32 }
%struct.PyDictObject = type { %struct._object, i64, i64, ptr, ptr }
%struct.defdictobject = type { %struct.PyDictObject, ptr }

@PyDict_Type = external global %struct._typeobject, align 8
@_Py_NoneStruct = external global %struct._object, align 8
@PyExc_TypeError = external global ptr, align 8
@.str.60 = private unnamed_addr constant [40 x i8] c"first argument must be callable or None\00", align 1

; Function Attrs: alwaysinline nounwind uwtable
define internal void @Py_INCREF(ptr noundef %0) #4 {
  %2 = alloca ptr, align 8
  %3 = alloca i32, align 4
  %4 = alloca i32, align 4
  store ptr %0, ptr %2, align 8, !tbaa !4
  call void @llvm.lifetime.start.p0(i64 4, ptr %3) #7
  %5 = load ptr, ptr %2, align 8, !tbaa !4
  %6 = getelementptr inbounds nuw %struct._object, ptr %5, i32 0, i32 0
  %7 = getelementptr inbounds nuw %struct.anon, ptr %6, i32 0, i32 0
  %8 = load i32, ptr %7, align 8, !tbaa !39
  store i32 %8, ptr %3, align 4, !tbaa !13
  %9 = load i32, ptr %3, align 4, !tbaa !13
  %10 = icmp slt i32 %9, 0
  br i1 %10, label %11, label %12

11:                                               ; preds = %1
  store i32 1, ptr %4, align 4
  br label %18

12:                                               ; preds = %1
  %13 = load i32, ptr %3, align 4, !tbaa !13
  %14 = add i32 %13, 1
  %15 = load ptr, ptr %2, align 8, !tbaa !4
  %16 = getelementptr inbounds nuw %struct._object, ptr %15, i32 0, i32 0
  %17 = getelementptr inbounds nuw %struct.anon, ptr %16, i32 0, i32 0
  store i32 %14, ptr %17, align 8, !tbaa !39
  store i32 0, ptr %4, align 4
  br label %18

18:                                               ; preds = %12, %11
  call void @llvm.lifetime.end.p0(i64 4, ptr %3) #7
  %19 = load i32, ptr %4, align 4
  switch i32 %19, label %21 [
    i32 0, label %20
    i32 1, label %20
  ]

20:                                               ; preds = %18, %18
  ret void

21:                                               ; preds = %18
  unreachable
}

; Function Attrs: alwaysinline nounwind uwtable
define internal i32 @_Py_IsImmortal(ptr noundef %0) #4 {
  %2 = alloca ptr, align 8
  store ptr %0, ptr %2, align 8, !tbaa !4
  %3 = load ptr, ptr %2, align 8, !tbaa !4
  %4 = getelementptr inbounds nuw %struct._object, ptr %3, i32 0, i32 0
  %5 = getelementptr inbounds nuw %struct.anon, ptr %4, i32 0, i32 0
  %6 = load i32, ptr %5, align 8, !tbaa !39
  %7 = icmp slt i32 %6, 0
  %8 = zext i1 %7 to i32
  ret i32 %8
}

; Function Attrs: inlinehint nounwind uwtable
define internal void @Py_XINCREF(ptr noundef %0) #3 {
  %2 = alloca ptr, align 8
  store ptr %0, ptr %2, align 8, !tbaa !4
  %3 = load ptr, ptr %2, align 8, !tbaa !4
  %4 = icmp ne ptr %3, null
  br i1 %4, label %5, label %7

5:                                                ; preds = %1
  %6 = load ptr, ptr %2, align 8, !tbaa !4
  call void @Py_INCREF(ptr noundef %6)
  br label %7

7:                                                ; preds = %5, %1
  ret void
}

; Function Attrs: inlinehint nounwind uwtable
define internal i64 @Py_SIZE(ptr noundef %0) #3 {
  %2 = alloca ptr, align 8
  store ptr %0, ptr %2, align 8, !tbaa !4
  %3 = load ptr, ptr %2, align 8, !tbaa !4
  %4 = getelementptr inbounds nuw %struct.PyVarObject, ptr %3, i32 0, i32 1
  %5 = load i64, ptr %4, align 8, !tbaa !72
  ret i64 %5
}

; Function Attrs: inlinehint nounwind uwtable
define internal void @Py_XDECREF(ptr noundef %0) #3 {
  %2 = alloca ptr, align 8
  store ptr %0, ptr %2, align 8, !tbaa !4
  %3 = load ptr, ptr %2, align 8, !tbaa !4
  %4 = icmp ne ptr %3, null
  br i1 %4, label %5, label %7

5:                                                ; preds = %1
  %6 = load ptr, ptr %2, align 8, !tbaa !4
  call void @Py_DECREF(ptr noundef %6)
  br label %7

7:                                                ; preds = %5, %1
  ret void
}

; Function Attrs: alwaysinline nounwind uwtable
define internal void @Py_DECREF(ptr noundef %0) #4 {
  %2 = alloca ptr, align 8
  store ptr %0, ptr %2, align 8, !tbaa !4
  %3 = load ptr, ptr %2, align 8, !tbaa !4
  %4 = call i32 @_Py_IsImmortal(ptr noundef %3)
  %5 = icmp ne i32 %4, 0
  br i1 %5, label %6, label %7

6:                                                ; preds = %1
  br label %16

7:                                                ; preds = %1
  %8 = load ptr, ptr %2, align 8, !tbaa !4
  %9 = getelementptr inbounds nuw %struct._object, ptr %8, i32 0, i32 0
  %10 = getelementptr inbounds nuw %struct.anon, ptr %9, i32 0, i32 0
  %11 = load i32, ptr %10, align 8, !tbaa !39
  %12 = add i32 %11, -1
  store i32 %12, ptr %10, align 8, !tbaa !39
  %13 = icmp eq i32 %12, 0
  br i1 %13, label %14, label %16

14:                                               ; preds = %7
  %15 = load ptr, ptr %2, align 8, !tbaa !4
  call void @_Py_Dealloc(ptr noundef %15)
  br label %16

16:                                               ; preds = %6, %14, %7
  ret void
}

; Function Attrs: inlinehint nounwind uwtable
define internal ptr @_Py_XNewRef(ptr noundef %0) #3 {
  %2 = alloca ptr, align 8
  store ptr %0, ptr %2, align 8, !tbaa !4
  %3 = load ptr, ptr %2, align 8, !tbaa !4
  call void @Py_XINCREF(ptr noundef %3)
  %4 = load ptr, ptr %2, align 8, !tbaa !4
  ret ptr %4
}

; Function Attrs: inlinehint nounwind uwtable
define internal i64 @PyTuple_GET_SIZE(ptr noundef %0) #3 {
  %2 = alloca ptr, align 8
  %3 = alloca ptr, align 8
  store ptr %0, ptr %2, align 8, !tbaa !4
  call void @llvm.lifetime.start.p0(i64 8, ptr %3) #7
  %4 = load ptr, ptr %2, align 8, !tbaa !4
  store ptr %4, ptr %3, align 8, !tbaa !9
  %5 = load ptr, ptr %3, align 8, !tbaa !9
  %6 = call i64 @Py_SIZE(ptr noundef %5)
  call void @llvm.lifetime.end.p0(i64 8, ptr %3) #7
  ret i64 %6
}

; Function Attrs: inlinehint nounwind uwtable
define internal i32 @PyType_HasFeature(ptr noundef %0, i64 noundef %1) #3 {
  %3 = alloca ptr, align 8
  %4 = alloca i64, align 8
  %5 = alloca i64, align 8
  store ptr %0, ptr %3, align 8, !tbaa !21
  store i64 %1, ptr %4, align 8, !tbaa !24
  call void @llvm.lifetime.start.p0(i64 8, ptr %5) #7
  %6 = load ptr, ptr %3, align 8, !tbaa !21
  %7 = getelementptr inbounds nuw %struct._typeobject, ptr %6, i32 0, i32 19
  %8 = load i64, ptr %7, align 8, !tbaa !28
  store i64 %8, ptr %5, align 8, !tbaa !24
  %9 = load i64, ptr %5, align 8, !tbaa !24
  %10 = load i64, ptr %4, align 8, !tbaa !24
  %11 = and i64 %9, %10
  %12 = icmp ne i64 %11, 0
  %13 = zext i1 %12 to i32
  call void @llvm.lifetime.end.p0(i64 8, ptr %5) #7
  ret i32 %13
}

; Function Attrs: inlinehint nounwind uwtable
define internal ptr @_Py_TYPE(ptr noundef %0) #3 {
  %2 = alloca ptr, align 8
  store ptr %0, ptr %2, align 8, !tbaa !4
  %3 = load ptr, ptr %2, align 8, !tbaa !4
  %4 = getelementptr inbounds nuw %struct._object, ptr %3, i32 0, i32 1
  %5 = load ptr, ptr %4, align 8, !tbaa !26
  ret ptr %5
}

; Function Attrs: nounwind uwtable
define internal i32 @defdict_init(ptr noundef %0, ptr noundef %1, ptr noundef %2) #0 {
  %4 = alloca i32, align 4
  %5 = alloca ptr, align 8
  %6 = alloca ptr, align 8
  %7 = alloca ptr, align 8
  %8 = alloca ptr, align 8
  %9 = alloca ptr, align 8
  %10 = alloca ptr, align 8
  %11 = alloca ptr, align 8
  %12 = alloca i32, align 4
  %13 = alloca i64, align 8
  %14 = alloca i32, align 4
  store ptr %0, ptr %5, align 8, !tbaa !4
  store ptr %1, ptr %6, align 8, !tbaa !4
  store ptr %2, ptr %7, align 8, !tbaa !4
  call void @llvm.lifetime.start.p0(i64 8, ptr %8) #7
  %15 = load ptr, ptr %5, align 8, !tbaa !4
  store ptr %15, ptr %8, align 8, !tbaa !9
  call void @llvm.lifetime.start.p0(i64 8, ptr %9) #7
  %16 = load ptr, ptr %8, align 8, !tbaa !9
  %17 = getelementptr inbounds nuw %struct.defdictobject, ptr %16, i32 0, i32 1
  %18 = load ptr, ptr %17, align 8, !tbaa !104
  store ptr %18, ptr %9, align 8, !tbaa !4
  call void @llvm.lifetime.start.p0(i64 8, ptr %10) #7
  store ptr null, ptr %10, align 8, !tbaa !4
  call void @llvm.lifetime.start.p0(i64 8, ptr %11) #7
  call void @llvm.lifetime.start.p0(i64 4, ptr %12) #7
  %19 = load ptr, ptr %6, align 8, !tbaa !4
  %20 = icmp eq ptr %19, null
  br i1 %20, label %26, label %21

21:                                               ; preds = %3
  %22 = load ptr, ptr %6, align 8, !tbaa !4
  %23 = call ptr @_Py_TYPE(ptr noundef %22)
  %24 = call i32 @PyType_HasFeature(ptr noundef %23, i64 noundef 67108864)
  %25 = icmp ne i32 %24, 0
  br i1 %25, label %28, label %26

26:                                               ; preds = %21, %3
  %27 = call ptr @PyTuple_New(i64 noundef 0)
  store ptr %27, ptr %11, align 8, !tbaa !4
  br label %54

28:                                               ; preds = %21
  call void @llvm.lifetime.start.p0(i64 8, ptr %13) #7
  %29 = load ptr, ptr %6, align 8, !tbaa !4
  %30 = call i64 @PyTuple_GET_SIZE(ptr noundef %29)
  store i64 %30, ptr %13, align 8, !tbaa !24
  %31 = load i64, ptr %13, align 8, !tbaa !24
  %32 = icmp sgt i64 %31, 0
  br i1 %32, label %33, label %47

33:                                               ; preds = %28
  %34 = load ptr, ptr %6, align 8, !tbaa !4
  %35 = getelementptr inbounds nuw %struct.PyTupleObject, ptr %34, i32 0, i32 1
  %36 = getelementptr [1 x ptr], ptr %35, i64 0, i64 0
  %37 = load ptr, ptr %36, align 8, !tbaa !4
  store ptr %37, ptr %10, align 8, !tbaa !4
  %38 = load ptr, ptr %10, align 8, !tbaa !4
  %39 = call i32 @PyCallable_Check(ptr noundef %38)
  %40 = icmp ne i32 %39, 0
  br i1 %40, label %46, label %41

41:                                               ; preds = %33
  %42 = load ptr, ptr %10, align 8, !tbaa !4
  %43 = icmp ne ptr %42, @_Py_NoneStruct
  br i1 %43, label %44, label %46

44:                                               ; preds = %41
  %45 = load ptr, ptr @PyExc_TypeError, align 8, !tbaa !4
  call void @PyErr_SetString(ptr noundef %45, ptr noundef @.str.60)
  store i32 -1, ptr %4, align 4
  store i32 1, ptr %14, align 4
  br label %51

46:                                               ; preds = %41, %33
  br label %47

47:                                               ; preds = %46, %28
  %48 = load ptr, ptr %6, align 8, !tbaa !4
  %49 = load i64, ptr %13, align 8, !tbaa !24
  %50 = call ptr @PySequence_GetSlice(ptr noundef %48, i64 noundef 1, i64 noundef %49)
  store ptr %50, ptr %11, align 8, !tbaa !4
  store i32 0, ptr %14, align 4
  br label %51

51:                                               ; preds = %47, %44
  call void @llvm.lifetime.end.p0(i64 8, ptr %13) #7
  %52 = load i32, ptr %14, align 4
  switch i32 %52, label %71 [
    i32 0, label %53
  ]

53:                                               ; preds = %51
  br label %54

54:                                               ; preds = %53, %26
  %55 = load ptr, ptr %11, align 8, !tbaa !4
  %56 = icmp eq ptr %55, null
  br i1 %56, label %57, label %58

57:                                               ; preds = %54
  store i32 -1, ptr %4, align 4
  store i32 1, ptr %14, align 4
  br label %71

58:                                               ; preds = %54
  %59 = load ptr, ptr %10, align 8, !tbaa !4
  %60 = call ptr @_Py_XNewRef(ptr noundef %59)
  %61 = load ptr, ptr %8, align 8, !tbaa !9
  %62 = getelementptr inbounds nuw %struct.defdictobject, ptr %61, i32 0, i32 1
  store ptr %60, ptr %62, align 8, !tbaa !104
  %63 = load ptr, ptr getelementptr inbounds nuw (%struct._typeobject, ptr @PyDict_Type, i32 0, i32 35), align 8, !tbaa !108
  %64 = load ptr, ptr %5, align 8, !tbaa !4
  %65 = load ptr, ptr %11, align 8, !tbaa !4
  %66 = load ptr, ptr %7, align 8, !tbaa !4
  %67 = call i32 %63(ptr noundef %64, ptr noundef %65, ptr noundef %66)
  store i32 %67, ptr %12, align 4, !tbaa !13
  %68 = load ptr, ptr %11, align 8, !tbaa !4
  call void @Py_DECREF(ptr noundef %68)
  %69 = load ptr, ptr %9, align 8, !tbaa !4
  call void @Py_XDECREF(ptr noundef %69)
  %70 = load i32, ptr %12, align 4, !tbaa !13
  store i32 %70, ptr %4, align 4
  store i32 1, ptr %14, align 4
  br label %71

71:                                               ; preds = %58, %57, %51
  call void @llvm.lifetime.end.p0(i64 4, ptr %12) #7
  call void @llvm.lifetime.end.p0(i64 8, ptr %11) #7
  call void @llvm.lifetime.end.p0(i64 8, ptr %10) #7
  call void @llvm.lifetime.end.p0(i64 8, ptr %9) #7
  call void @llvm.lifetime.end.p0(i64 8, ptr %8) #7
  %72 = load i32, ptr %4, align 4
  ret i32 %72
}