; Function Attrs: nounwind uwtable
define internal i32 @defdict_init(ptr noundef %0, ptr noundef %1, ptr noundef %2) #0 {
  %4 = getelementptr inbounds nuw i8, ptr %0, i64 48
  %5 = load ptr, ptr %4, align 8, !tbaa !97
  %6 = icmp eq ptr %1, null
  br i1 %6, label %.thread36, label %7

7:                                                ; preds = %3
  %8 = getelementptr i8, ptr %1, i64 8
  %.val29 = load ptr, ptr %8, align 8, !tbaa !22
  %9 = getelementptr i8, ptr %.val29, i64 168
  %.val30 = load i64, ptr %9, align 8, !tbaa !23
  %10 = and i64 %.val30, 67108864
  %.not = icmp eq i64 %10, 0
  br i1 %.not, label %.thread36, label %11

11:                                               ; preds = %7
  %12 = getelementptr i8, ptr %1, i64 16
  %.val = load i64, ptr %12, align 8, !tbaa !52
  %13 = icmp sgt i64 %.val, 0
  br i1 %13, label %14, label %.thread

14:                                               ; preds = %11
  %15 = getelementptr inbounds nuw i8, ptr %1, i64 24
  %16 = load ptr, ptr %15, align 8, !tbaa !21
  %17 = tail call i32 @PyCallable_Check(ptr noundef %16) #9
  %18 = icmp eq i32 %17, 0
  %19 = icmp ne ptr %16, @_Py_NoneStruct
  %or.cond = and i1 %19, %18
  br i1 %or.cond, label %20, label %22

20:                                               ; preds = %14
  %21 = load ptr, ptr @PyExc_TypeError, align 8, !tbaa !21
  tail call void @PyErr_SetString(ptr noundef %21, ptr noundef nonnull @.str.60) #9
  br label %Py_XDECREF.exit

22:                                               ; preds = %14
  %23 = tail call ptr @PySequence_GetSlice(ptr noundef nonnull %1, i64 noundef 1, i64 noundef %.val) #9
  %24 = icmp eq ptr %23, null
  br i1 %24, label %Py_XDECREF.exit, label %29

.thread:                                          ; preds = %11
  %25 = tail call ptr @PySequence_GetSlice(ptr noundef nonnull %1, i64 noundef 1, i64 noundef %.val) #9
  %26 = icmp eq ptr %25, null
  br i1 %26, label %Py_XDECREF.exit, label %_Py_XNewRef.exit

.thread36:                                        ; preds = %3, %7
  %27 = tail call ptr @PyTuple_New(i64 noundef 0) #9
  %28 = icmp eq ptr %27, null
  br i1 %28, label %Py_XDECREF.exit, label %_Py_XNewRef.exit

29:                                               ; preds = %22
  %.not.i.i = icmp eq ptr %16, null
  br i1 %.not.i.i, label %_Py_XNewRef.exit, label %30

30:                                               ; preds = %29
  %31 = load i32, ptr %16, align 8, !tbaa !20
  %32 = icmp slt i32 %31, 0
  br i1 %32, label %_Py_XNewRef.exit, label %33

33:                                               ; preds = %30
  %34 = add nuw i32 %31, 1
  store i32 %34, ptr %16, align 8, !tbaa !20
  br label %_Py_XNewRef.exit

_Py_XNewRef.exit:                                 ; preds = %.thread, %.thread36, %29, %30, %33
  %.0253946 = phi ptr [ %23, %29 ], [ %23, %30 ], [ %23, %33 ], [ %27, %.thread36 ], [ %25, %.thread ]
  %.0234045 = phi ptr [ null, %29 ], [ %16, %30 ], [ %16, %33 ], [ null, %.thread36 ], [ null, %.thread ]
  store ptr %.0234045, ptr %4, align 8, !tbaa !97
  %35 = load ptr, ptr getelementptr inbounds nuw (i8, ptr @PyDict_Type, i64 296), align 8, !tbaa !101
  %36 = tail call i32 %35(ptr noundef nonnull %0, ptr noundef nonnull %.0253946, ptr noundef %2) #9
  %37 = load i32, ptr %.0253946, align 8, !tbaa !20
  %.not.i = icmp sgt i32 %37, -1
  br i1 %.not.i, label %38, label %Py_DECREF.exit

38:                                               ; preds = %_Py_XNewRef.exit
  %39 = add nsw i32 %37, -1
  store i32 %39, ptr %.0253946, align 8, !tbaa !20
  %40 = icmp eq i32 %39, 0
  br i1 %40, label %41, label %Py_DECREF.exit

41:                                               ; preds = %38
  tail call void @_Py_Dealloc(ptr noundef nonnull %.0253946) #9
  br label %Py_DECREF.exit

Py_DECREF.exit:                                   ; preds = %_Py_XNewRef.exit, %38, %41
  %.not.i31 = icmp eq ptr %5, null
  br i1 %.not.i31, label %Py_XDECREF.exit, label %42

42:                                               ; preds = %Py_DECREF.exit
  %43 = load i32, ptr %5, align 8, !tbaa !20
  %.not.i.i32 = icmp sgt i32 %43, -1
  br i1 %.not.i.i32, label %44, label %Py_XDECREF.exit

44:                                               ; preds = %42
  %45 = add nsw i32 %43, -1
  store i32 %45, ptr %5, align 8, !tbaa !20
  %46 = icmp eq i32 %45, 0
  br i1 %46, label %47, label %Py_XDECREF.exit

47:                                               ; preds = %44
  tail call void @_Py_Dealloc(ptr noundef nonnull %5) #9
  br label %Py_XDECREF.exit

Py_XDECREF.exit:                                  ; preds = %.thread, %47, %44, %42, %Py_DECREF.exit, %.thread36, %20, %22
  %.1 = phi i32 [ -1, %20 ], [ -1, %22 ], [ -1, %.thread36 ], [ %36, %Py_DECREF.exit ], [ %36, %42 ], [ %36, %44 ], [ %36, %47 ], [ -1, %.thread ]
  ret i32 %.1
}